target datalayout = "e-m:e-p270:32:32-p271:32:32-p272:64:64-i64:64-i128:128-f80:128-n8:16:32:64-S128"
target triple = "x86_64-pc-linux-gnu"

%struct._zend_array = type { %struct._zend_refcounted_h, %union.anon.0, i32, %union.anon.1, i32, i32, i32, i32, i64, ptr }
%struct._zend_refcounted_h = type { i32, %union.anon }
%union.anon = type { i32 }
%union.anon.0 = type { i32 }
%union.anon.1 = type { ptr }
%struct._php_password_algo = type { ptr, ptr, ptr, ptr, ptr, ptr }
%struct._zval_struct = type { %union._zend_value, %union.anon.3, %union.anon.6 }
%union._zend_value = type { i64 }
%union.anon.3 = type { i32 }
%union.anon.6 = type { i32 }

@zend_string_init_interned = external global ptr, align 8
@php_password_algos = internal global %struct._zend_array zeroinitializer, align 8
@php_password_algo_bcrypt = hidden constant %struct._php_password_algo { ptr @.str, ptr @php_password_bcrypt_hash, ptr @php_password_bcrypt_verify, ptr @php_password_bcrypt_needs_rehash, ptr @php_password_bcrypt_get_info, ptr @php_password_bcrypt_valid }, align 8
@.str.1 = private unnamed_addr constant [3 x i8] c"2y\00", align 1
@.str.18 = private unnamed_addr constant [17 x i8] c"PASSWORD_DEFAULT\00", align 1
@.str.19 = private unnamed_addr constant [16 x i8] c"PASSWORD_BCRYPT\00", align 1
@.str.20 = private unnamed_addr constant [29 x i8] c"PASSWORD_BCRYPT_DEFAULT_COST\00", align 1

; Function Attrs: nounwind uwtable
define dso_local i32 @php_password_algo_register(ptr noundef %0, ptr noundef %1) #0 {
  %3 = alloca ptr, align 8
  %4 = alloca ptr, align 8
  %5 = alloca ptr, align 8
  %6 = alloca ptr, align 8
  %7 = alloca %struct._zval_struct, align 8
  %8 = alloca ptr, align 8
  %9 = alloca ptr, align 8
  %10 = alloca ptr, align 8
  %11 = alloca ptr, align 8
  store ptr %0, ptr %9, align 8
  store ptr %1, ptr %10, align 8
  %12 = load ptr, ptr @zend_string_init_interned, align 8
  %13 = load ptr, ptr %9, align 8
  %14 = load ptr, ptr %9, align 8
  %15 = call i64 @strlen(ptr noundef %14) #8
  %16 = call ptr %12(ptr noundef %13, i64 noundef %15, i1 noundef zeroext true)
  store ptr %16, ptr %11, align 8
  %17 = load ptr, ptr %11, align 8
  %18 = load ptr, ptr %10, align 8
  store ptr @php_password_algos, ptr %4, align 8
  store ptr %17, ptr %5, align 8
  store ptr %18, ptr %6, align 8
  %19 = load ptr, ptr %6, align 8
  store ptr %19, ptr %7, align 8
  %20 = getelementptr inbounds %struct._zval_struct, ptr %7, i32 0, i32 1
  store i32 13, ptr %20, align 8
  %21 = load ptr, ptr %4, align 8
  %22 = load ptr, ptr %5, align 8
  %23 = call ptr @zend_hash_add(ptr noundef %21, ptr noundef %22, ptr noundef %7) #9
  store ptr %23, ptr %8, align 8
  %24 = load ptr, ptr %8, align 8
  %25 = icmp ne ptr %24, null
  br i1 %25, label %26, label %32

26:                                               ; preds = %2
  %27 = load ptr, ptr %8, align 8
  %28 = load ptr, ptr %27, align 8
  %29 = icmp ne ptr %28, null
  call void @llvm.assume(i1 %29)
  %30 = load ptr, ptr %8, align 8
  %31 = load ptr, ptr %30, align 8
  store ptr %31, ptr %3, align 8
  br label %33

32:                                               ; preds = %2
  store ptr null, ptr %3, align 8
  br label %33

33:                                               ; preds = %32, %26
  %34 = load ptr, ptr %3, align 8
  %35 = icmp ne ptr %34, null
  %36 = select i1 %35, i32 0, i32 -1
  ret i32 %36
}

; Function Attrs: nounwind uwtable
define internal void @register_password_symbols(i32 noundef %0) #0 {
  %2 = alloca i32, align 4
  store i32 %0, ptr %2, align 4
  %3 = load i32, ptr %2, align 4
  call void @zend_register_string_constant(ptr noundef @.str.18, i64 noundef 16, ptr noundef @.str.1, i32 noundef 1, i32 noundef %3)
  %4 = load i32, ptr %2, align 4
  call void @zend_register_string_constant(ptr noundef @.str.19, i64 noundef 15, ptr noundef @.str.1, i32 noundef 1, i32 noundef %4)
  %5 = load i32, ptr %2, align 4
  call void @zend_register_long_constant(ptr noundef @.str.20, i64 noundef 28, i64 noundef 12, i32 noundef 1, i32 noundef %5)
  ret void
}

; Function Attrs: nounwind uwtable
define hidden i32 @zm_startup_password(i32 noundef %0, i32 noundef %1) #0 {
  %3 = alloca i32, align 4
  %4 = alloca i32, align 4
  %5 = alloca i32, align 4
  store i32 %0, ptr %4, align 4
  store i32 %1, ptr %5, align 4
  call void @_zend_hash_init(ptr noundef @php_password_algos, i32 noundef 4, ptr noundef @zval_ptr_dtor, i1 noundef zeroext true)
  %6 = load i32, ptr %5, align 4
  call void @register_password_symbols(i32 noundef %6)
  %7 = call i32 @php_password_algo_register(ptr noundef @.str.1, ptr noundef @php_password_algo_bcrypt)
  %8 = icmp eq i32 -1, %7
  br i1 %8, label %9, label %10

9:                                                ; preds = %2
  store i32 -1, ptr %3, align 4
  br label %11

10:                                               ; preds = %2
  store i32 0, ptr %3, align 4
  br label %11

11:                                               ; preds = %10, %9
  %12 = load i32, ptr %3, align 4
  ret i32 %12
}