; Function Attrs: nounwind uwtable
define hidden i32 @zm_startup_password(i32 noundef %0, i32 noundef %1) local_unnamed_addr #0 {
  %3 = alloca %struct._zval_struct, align 8
  tail call void @_zend_hash_init(ptr noundef nonnull @php_password_algos, i32 noundef 4, ptr noundef nonnull @zval_ptr_dtor, i1 noundef zeroext true) #12
  tail call void @zend_register_string_constant(ptr noundef nonnull @.str.18, i64 noundef 16, ptr noundef nonnull @.str.1, i32 noundef 1, i32 noundef %1) #12
  tail call void @zend_register_string_constant(ptr noundef nonnull @.str.19, i64 noundef 15, ptr noundef nonnull @.str.1, i32 noundef 1, i32 noundef %1) #12
  tail call void @zend_register_long_constant(ptr noundef nonnull @.str.20, i64 noundef 28, i64 noundef 12, i32 noundef 1, i32 noundef %1) #12
  call void @llvm.lifetime.start.p0(i64 16, ptr nonnull %3)
  %4 = load ptr, ptr @zend_string_init_interned, align 8
  %5 = tail call ptr %4(ptr noundef nonnull @.str.1, i64 noundef 2, i1 noundef zeroext true) #12
  store ptr @php_password_algo_bcrypt, ptr %3, align 8
  %6 = getelementptr inbounds i8, ptr %3, i64 8
  store i32 13, ptr %6, align 8
  %7 = call ptr @zend_hash_add(ptr noundef nonnull @php_password_algos, ptr noundef %5, ptr noundef nonnull %3) #12
  %.not.i = icmp eq ptr %7, null
  call void @llvm.lifetime.end.p0(i64 16, ptr nonnull %3)
  %. = sext i1 %.not.i to i32
  ret i32 %.
}